target datalayout = "e-m:e-p270:32:32-p271:32:32-p272:64:64-i64:64-i128:128-f80:128-n8:16:32:64-S128"
target triple = "x86_64-pc-linux-gnu"

%struct.VP8BitWriter = type { i32, i32, i32, i32, ptr, i64, i64, i32 }

; Function Attrs: nounwind uwtable
define hidden i32 @VP8PutBitUniform(ptr noundef %0, i32 noundef %1) #0 {
  %3 = alloca ptr, align 8
  %4 = alloca i32, align 4
  %5 = alloca i32, align 4
  store ptr %0, ptr %3, align 8, !tbaa !3
  store i32 %1, ptr %4, align 4, !tbaa !8
  call void @llvm.lifetime.start.p0(i64 4, ptr %5) #6
  %6 = load ptr, ptr %3, align 8, !tbaa !3
  %7 = getelementptr inbounds nuw %struct.VP8BitWriter, ptr %6, i32 0, i32 0
  %8 = load i32, ptr %7, align 8, !tbaa !10
  %9 = ashr i32 %8, 1
  store i32 %9, ptr %5, align 4, !tbaa !8
  %10 = load i32, ptr %4, align 4, !tbaa !8
  %11 = icmp ne i32 %10, 0
  br i1 %11, label %12, label %25

12:                                               ; preds = %2
  %13 = load i32, ptr %5, align 4, !tbaa !8
  %14 = add nsw i32 %13, 1
  %15 = load ptr, ptr %3, align 8, !tbaa !3
  %16 = getelementptr inbounds nuw %struct.VP8BitWriter, ptr %15, i32 0, i32 1
  %17 = load i32, ptr %16, align 4, !tbaa !14
  %18 = add nsw i32 %17, %14
  store i32 %18, ptr %16, align 4, !tbaa !14
  %19 = load i32, ptr %5, align 4, !tbaa !8
  %20 = add nsw i32 %19, 1
  %21 = load ptr, ptr %3, align 8, !tbaa !3
  %22 = getelementptr inbounds nuw %struct.VP8BitWriter, ptr %21, i32 0, i32 0
  %23 = load i32, ptr %22, align 8, !tbaa !10
  %24 = sub nsw i32 %23, %20
  store i32 %24, ptr %22, align 8, !tbaa !10
  br label %29

25:                                               ; preds = %2
  %26 = load i32, ptr %5, align 4, !tbaa !8
  %27 = load ptr, ptr %3, align 8, !tbaa !3
  %28 = getelementptr inbounds nuw %struct.VP8BitWriter, ptr %27, i32 0, i32 0
  store i32 %26, ptr %28, align 8, !tbaa !10
  br label %29

29:                                               ; preds = %25, %12
  %30 = load ptr, ptr %3, align 8, !tbaa !3
  %31 = getelementptr inbounds nuw %struct.VP8BitWriter, ptr %30, i32 0, i32 0
  %32 = load i32, ptr %31, align 8, !tbaa !10
  %33 = icmp slt i32 %32, 127
  br i1 %33, label %34, label %59

34:                                               ; preds = %29
  %35 = load ptr, ptr %3, align 8, !tbaa !3
  %36 = getelementptr inbounds nuw %struct.VP8BitWriter, ptr %35, i32 0, i32 0
  %37 = load i32, ptr %36, align 8, !tbaa !10
  %38 = sext i32 %37 to i64
  %39 = getelementptr inbounds [128 x i8], ptr @kNewRange, i64 0, i64 %38
  %40 = load i8, ptr %39, align 1, !tbaa !15
  %41 = zext i8 %40 to i32
  %42 = load ptr, ptr %3, align 8, !tbaa !3
  %43 = getelementptr inbounds nuw %struct.VP8BitWriter, ptr %42, i32 0, i32 0
  store i32 %41, ptr %43, align 8, !tbaa !10
  %44 = load ptr, ptr %3, align 8, !tbaa !3
  %45 = getelementptr inbounds nuw %struct.VP8BitWriter, ptr %44, i32 0, i32 1
  %46 = load i32, ptr %45, align 4, !tbaa !14
  %47 = shl i32 %46, 1
  store i32 %47, ptr %45, align 4, !tbaa !14
  %48 = load ptr, ptr %3, align 8, !tbaa !3
  %49 = getelementptr inbounds nuw %struct.VP8BitWriter, ptr %48, i32 0, i32 3
  %50 = load i32, ptr %49, align 4, !tbaa !16
  %51 = add nsw i32 %50, 1
  store i32 %51, ptr %49, align 4, !tbaa !16
  %52 = load ptr, ptr %3, align 8, !tbaa !3
  %53 = getelementptr inbounds nuw %struct.VP8BitWriter, ptr %52, i32 0, i32 3
  %54 = load i32, ptr %53, align 4, !tbaa !16
  %55 = icmp sgt i32 %54, 0
  br i1 %55, label %56, label %58

56:                                               ; preds = %34
  %57 = load ptr, ptr %3, align 8, !tbaa !3
  call void @Flush(ptr noundef %57)
  br label %58

58:                                               ; preds = %56, %34
  br label %59

59:                                               ; preds = %58, %29
  %60 = load i32, ptr %4, align 4, !tbaa !8
  call void @llvm.lifetime.end.p0(i64 4, ptr %5) #6
  ret i32 %60
}

; Function Attrs: nounwind uwtable
define hidden void @VP8PutBits(ptr noundef %0, i32 noundef %1, i32 noundef %2) #0 {
  %4 = alloca ptr, align 8
  %5 = alloca i32, align 4
  %6 = alloca i32, align 4
  %7 = alloca i32, align 4
  store ptr %0, ptr %4, align 8, !tbaa !3
  store i32 %1, ptr %5, align 4, !tbaa !8
  store i32 %2, ptr %6, align 4, !tbaa !8
  call void @llvm.lifetime.start.p0(i64 4, ptr %7) #6
  %8 = load i32, ptr %6, align 4, !tbaa !8
  %9 = sub nsw i32 %8, 1
  %10 = shl i32 1, %9
  store i32 %10, ptr %7, align 4, !tbaa !8
  br label %11

11:                                               ; preds = %20, %3
  %12 = load i32, ptr %7, align 4, !tbaa !8
  %13 = icmp ne i32 %12, 0
  br i1 %13, label %14, label %23

14:                                               ; preds = %11
  %15 = load ptr, ptr %4, align 8, !tbaa !3
  %16 = load i32, ptr %5, align 4, !tbaa !8
  %17 = load i32, ptr %7, align 4, !tbaa !8
  %18 = and i32 %16, %17
  %19 = call i32 @VP8PutBitUniform(ptr noundef %15, i32 noundef %18)
  br label %20

20:                                               ; preds = %14
  %21 = load i32, ptr %7, align 4, !tbaa !8
  %22 = lshr i32 %21, 1
  store i32 %22, ptr %7, align 4, !tbaa !8
  br label %11, !llvm.loop !23

23:                                               ; preds = %11
  call void @llvm.lifetime.end.p0(i64 4, ptr %7) #6
  ret void
}