; Function Attrs: nounwind uwtable
define hidden void @VP8PutBits(ptr noundef captures(none) %0, i32 noundef %1, i32 noundef %2) local_unnamed_addr #0 {
  %4 = add nsw i32 %2, -1
  %5 = shl nuw i32 1, %4
  %6 = getelementptr inbounds nuw i8, ptr %0, i64 4
  %7 = getelementptr inbounds nuw i8, ptr %0, i64 12
  br label %8

8:                                                ; preds = %3, %VP8PutBitUniform.exit
  %.05 = phi i32 [ %5, %3 ], [ %30, %VP8PutBitUniform.exit ]
  %9 = and i32 %.05, %1
  %10 = load i32, ptr %0, align 8, !tbaa !3
  %11 = ashr i32 %10, 1
  %.not.i = icmp eq i32 %9, 0
  br i1 %.not.i, label %17, label %12

12:                                               ; preds = %8
  %13 = add nsw i32 %11, 1
  %14 = load i32, ptr %6, align 4, !tbaa !11
  %15 = add nsw i32 %14, %13
  store i32 %15, ptr %6, align 4, !tbaa !11
  %16 = sub nsw i32 %10, %13
  br label %17

17:                                               ; preds = %12, %8
  %storemerge.i = phi i32 [ %16, %12 ], [ %11, %8 ]
  store i32 %storemerge.i, ptr %0, align 8, !tbaa !3
  %18 = icmp slt i32 %storemerge.i, 127
  br i1 %18, label %19, label %VP8PutBitUniform.exit

19:                                               ; preds = %17
  %20 = sext i32 %storemerge.i to i64
  %21 = getelementptr inbounds [128 x i8], ptr @kNewRange, i64 0, i64 %20
  %22 = load i8, ptr %21, align 1, !tbaa !12
  %23 = zext i8 %22 to i32
  store i32 %23, ptr %0, align 8, !tbaa !3
  %24 = load i32, ptr %6, align 4, !tbaa !11
  %25 = shl i32 %24, 1
  store i32 %25, ptr %6, align 4, !tbaa !11
  %26 = load i32, ptr %7, align 4, !tbaa !13
  %27 = add nsw i32 %26, 1
  store i32 %27, ptr %7, align 4, !tbaa !13
  %28 = icmp sgt i32 %26, -1
  br i1 %28, label %29, label %VP8PutBitUniform.exit

29:                                               ; preds = %19
  tail call fastcc void @Flush(ptr noundef nonnull %0)
  br label %VP8PutBitUniform.exit

VP8PutBitUniform.exit:                            ; preds = %17, %19, %29
  %30 = lshr i32 %.05, 1
  %.not = icmp ult i32 %.05, 2
  br i1 %.not, label %31, label %8, !llvm.loop !21

31:                                               ; preds = %VP8PutBitUniform.exit
  ret void
}